target datalayout = "e-m:e-p270:32:32-p271:32:32-p272:64:64-i64:64-i128:128-f80:128-n8:16:32:64-S128"
target triple = "x86_64-pc-linux-gnu"

%struct.stat = type { i64, i64, i64, i32, i32, i32, i32, i64, i64, i64, i64, %struct.timespec, %struct.timespec, %struct.timespec, [3 x i64] }
%struct.timespec = type { i64, i64 }

; Function Attrs: nounwind uwtable
define i32 @dt_util_test_writable_dir(ptr noundef %0) #0 {
  %2 = alloca i32, align 4
  %3 = alloca ptr, align 8
  %4 = alloca %struct.stat, align 8
  %5 = alloca i32, align 4
  store ptr %0, ptr %3, align 8, !tbaa !6
  %6 = load ptr, ptr %3, align 8, !tbaa !6
  %7 = icmp eq ptr %6, null
  br i1 %7, label %8, label %9

8:                                                ; preds = %1
  store i32 0, ptr %2, align 4
  br label %29

9:                                                ; preds = %1
  call void @llvm.lifetime.start.p0(i64 144, ptr %4) #18
  %10 = load ptr, ptr %3, align 8, !tbaa !6
  %11 = call i32 @stat(ptr noundef %10, ptr noundef %4) #18
  %12 = icmp ne i32 %11, 0
  br i1 %12, label %13, label %14

13:                                               ; preds = %9
  store i32 0, ptr %2, align 4
  store i32 1, ptr %5, align 4
  br label %28

14:                                               ; preds = %9
  %15 = getelementptr inbounds nuw %struct.stat, ptr %4, i32 0, i32 3
  %16 = load i32, ptr %15, align 8, !tbaa !28
  %17 = and i32 %16, 61440
  %18 = icmp eq i32 %17, 16384
  %19 = zext i1 %18 to i32
  %20 = icmp eq i32 %19, 0
  br i1 %20, label %21, label %22

21:                                               ; preds = %14
  store i32 0, ptr %2, align 4
  store i32 1, ptr %5, align 4
  br label %28

22:                                               ; preds = %14
  %23 = load ptr, ptr %3, align 8, !tbaa !6
  %24 = call i32 @g_access(ptr noundef %23, i32 noundef 3)
  %25 = icmp ne i32 %24, 0
  br i1 %25, label %26, label %27

26:                                               ; preds = %22
  store i32 0, ptr %2, align 4
  store i32 1, ptr %5, align 4
  br label %28

27:                                               ; preds = %22
  store i32 1, ptr %2, align 4
  store i32 1, ptr %5, align 4
  br label %28

28:                                               ; preds = %27, %26, %21, %13
  call void @llvm.lifetime.end.p0(i64 144, ptr %4) #18
  br label %29

29:                                               ; preds = %28, %8
  %30 = load i32, ptr %2, align 4
  ret i32 %30
}