; Function Attrs: nounwind uwtable
define range(i32 0, 2) i32 @dt_util_test_writable_dir(ptr noundef %0) local_unnamed_addr #0 {
  %2 = alloca %struct.stat, align 8
  %3 = icmp eq ptr %0, null
  br i1 %3, label %13, label %4

4:                                                ; preds = %1
  call void @llvm.lifetime.start.p0(i64 144, ptr nonnull %2) #27
  %5 = call i32 @stat(ptr noundef nonnull %0, ptr noundef nonnull %2) #27
  %.not = icmp eq i32 %5, 0
  br i1 %.not, label %6, label %12

6:                                                ; preds = %4
  %7 = getelementptr inbounds nuw i8, ptr %2, i64 24
  %8 = load i32, ptr %7, align 8, !tbaa !16
  %9 = and i32 %8, 61440
  %.not4 = icmp eq i32 %9, 16384
  br i1 %.not4, label %10, label %12

10:                                               ; preds = %6
  %11 = tail call i32 @g_access(ptr noundef nonnull %0, i32 noundef 3) #27
  %.not5 = icmp eq i32 %11, 0
  %. = zext i1 %.not5 to i32
  br label %12

12:                                               ; preds = %10, %6, %4
  %.1 = phi i32 [ 0, %4 ], [ 0, %6 ], [ %., %10 ]
  call void @llvm.lifetime.end.p0(i64 144, ptr nonnull %2) #27
  br label %13

13:                                               ; preds = %1, %12
  %.0 = phi i32 [ %.1, %12 ], [ 0, %1 ]
  ret i32 %.0
}